target datalayout = "e-m:e-p270:32:32-p271:32:32-p272:64:64-i64:64-i128:128-f80:128-n8:16:32:64-S128"
target triple = "x86_64-pc-linux-gnu"

%struct._zend_array = type { %struct._zend_refcounted_h, %union.anon.0, i32, %union.anon.1, i32, i32, i32, i32, i64, ptr }
%struct._zend_refcounted_h = type { i32, %union.anon }
%union.anon = type { i32 }
%union.anon.0 = type { i32 }
%union.anon.1 = type { ptr }
%struct._zval_struct = type { %union._zend_value, %union.anon.3, %union.anon.6 }
%union._zend_value = type { i64 }
%union.anon.3 = type { i32 }
%union.anon.6 = type { i32 }
%struct._Bucket = type { %struct._zval_struct, i64, ptr }

; Function Attrs: nounwind uwtable
define ptr @zend_hash_minmax(ptr noundef %0, ptr noundef %1, i32 noundef %2) #0 {
  %4 = alloca ptr, align 8
  %5 = alloca ptr, align 8
  %6 = alloca ptr, align 8
  %7 = alloca ptr, align 8
  %8 = alloca ptr, align 8
  %9 = alloca ptr, align 8
  %10 = alloca ptr, align 8
  %11 = alloca i32, align 4
  %12 = alloca i32, align 4
  %13 = alloca ptr, align 8
  %14 = alloca ptr, align 8
  %15 = alloca ptr, align 8
  store ptr %0, ptr %9, align 8
  store ptr %1, ptr %10, align 8
  store i32 %2, ptr %11, align 4
  %16 = load ptr, ptr %9, align 8
  %17 = getelementptr inbounds %struct._zend_array, ptr %16, i32 0, i32 5
  %18 = load i32, ptr %17, align 4
  %19 = icmp eq i32 %18, 0
  br i1 %19, label %20, label %21

20:                                               ; preds = %3
  store ptr null, ptr %8, align 8
  br label %200

21:                                               ; preds = %3
  %22 = load ptr, ptr %9, align 8
  %23 = getelementptr inbounds %struct._zend_array, ptr %22, i32 0, i32 1
  %24 = load i32, ptr %23, align 8
  %25 = and i32 %24, 4
  %26 = icmp ne i32 %25, 0
  br i1 %26, label %27, label %109

27:                                               ; preds = %21
  store i32 0, ptr %12, align 4
  br label %28

28:                                               ; preds = %48, %27
  %29 = load i32, ptr %12, align 4
  %30 = load ptr, ptr %9, align 8
  %31 = getelementptr inbounds %struct._zend_array, ptr %30, i32 0, i32 4
  %32 = load i32, ptr %31, align 8
  %33 = icmp eq i32 %29, %32
  br i1 %33, label %34, label %35

34:                                               ; preds = %28
  store ptr null, ptr %8, align 8
  br label %200

35:                                               ; preds = %28
  %36 = load ptr, ptr %9, align 8
  %37 = getelementptr inbounds %struct._zend_array, ptr %36, i32 0, i32 3
  %38 = load ptr, ptr %37, align 8
  %39 = load i32, ptr %12, align 4
  %40 = zext i32 %39 to i64
  %41 = getelementptr inbounds %struct._zval_struct, ptr %38, i64 %40
  store ptr %41, ptr %4, align 8
  %42 = load ptr, ptr %4, align 8
  %43 = getelementptr inbounds %struct._zval_struct, ptr %42, i32 0, i32 1
  %44 = load i8, ptr %43, align 8
  %45 = zext i8 %44 to i32
  %46 = icmp ne i32 %45, 0
  br i1 %46, label %47, label %48

47:                                               ; preds = %35
  br label %51

48:                                               ; preds = %35
  %49 = load i32, ptr %12, align 4
  %50 = add i32 %49, 1
  store i32 %50, ptr %12, align 4
  br label %28

51:                                               ; preds = %47
  %52 = load ptr, ptr %9, align 8
  %53 = getelementptr inbounds %struct._zend_array, ptr %52, i32 0, i32 3
  %54 = load ptr, ptr %53, align 8
  %55 = load i32, ptr %12, align 4
  %56 = zext i32 %55 to i64
  %57 = getelementptr inbounds %struct._zval_struct, ptr %54, i64 %56
  store ptr %57, ptr %13, align 8
  br label %58

58:                                               ; preds = %105, %51
  %59 = load i32, ptr %12, align 4
  %60 = load ptr, ptr %9, align 8
  %61 = getelementptr inbounds %struct._zend_array, ptr %60, i32 0, i32 4
  %62 = load i32, ptr %61, align 8
  %63 = icmp ult i32 %59, %62
  br i1 %63, label %64, label %108

64:                                               ; preds = %58
  %65 = load ptr, ptr %9, align 8
  %66 = getelementptr inbounds %struct._zend_array, ptr %65, i32 0, i32 3
  %67 = load ptr, ptr %66, align 8
  %68 = load i32, ptr %12, align 4
  %69 = zext i32 %68 to i64
  %70 = getelementptr inbounds %struct._zval_struct, ptr %67, i64 %69
  store ptr %70, ptr %14, align 8
  %71 = load ptr, ptr %14, align 8
  store ptr %71, ptr %5, align 8
  %72 = load ptr, ptr %5, align 8
  %73 = getelementptr inbounds %struct._zval_struct, ptr %72, i32 0, i32 1
  %74 = load i8, ptr %73, align 8
  %75 = zext i8 %74 to i32
  %76 = icmp eq i32 %75, 0
  %77 = xor i1 %76, true
  %78 = xor i1 %77, true
  %79 = zext i1 %78 to i32
  %80 = sext i32 %79 to i64
  %81 = icmp ne i64 %80, 0
  br i1 %81, label %82, label %83

82:                                               ; preds = %64
  br label %105

83:                                               ; preds = %64
  %84 = load i32, ptr %11, align 4
  %85 = icmp ne i32 %84, 0
  br i1 %85, label %86, label %95

86:                                               ; preds = %83
  %87 = load ptr, ptr %10, align 8
  %88 = load ptr, ptr %13, align 8
  %89 = load ptr, ptr %14, align 8
  %90 = call i32 %87(ptr noundef %88, ptr noundef %89)
  %91 = icmp slt i32 %90, 0
  br i1 %91, label %92, label %94

92:                                               ; preds = %86
  %93 = load ptr, ptr %14, align 8
  store ptr %93, ptr %13, align 8
  br label %94

94:                                               ; preds = %92, %86
  br label %104

95:                                               ; preds = %83
  %96 = load ptr, ptr %10, align 8
  %97 = load ptr, ptr %13, align 8
  %98 = load ptr, ptr %14, align 8
  %99 = call i32 %96(ptr noundef %97, ptr noundef %98)
  %100 = icmp sgt i32 %99, 0
  br i1 %100, label %101, label %103

101:                                              ; preds = %95
  %102 = load ptr, ptr %14, align 8
  store ptr %102, ptr %13, align 8
  br label %103

103:                                              ; preds = %101, %95
  br label %104

104:                                              ; preds = %103, %94
  br label %105

105:                                              ; preds = %104, %82
  %106 = load i32, ptr %12, align 4
  %107 = add i32 %106, 1
  store i32 %107, ptr %12, align 4
  br label %58

108:                                              ; preds = %58
  br label %198

109:                                              ; preds = %21
  store i32 0, ptr %12, align 4
  br label %110

110:                                              ; preds = %131, %109
  %111 = load i32, ptr %12, align 4
  %112 = load ptr, ptr %9, align 8
  %113 = getelementptr inbounds %struct._zend_array, ptr %112, i32 0, i32 4
  %114 = load i32, ptr %113, align 8
  %115 = icmp eq i32 %111, %114
  br i1 %115, label %116, label %117

116:                                              ; preds = %110
  store ptr null, ptr %8, align 8
  br label %200

117:                                              ; preds = %110
  %118 = load ptr, ptr %9, align 8
  %119 = getelementptr inbounds %struct._zend_array, ptr %118, i32 0, i32 3
  %120 = load ptr, ptr %119, align 8
  %121 = load i32, ptr %12, align 4
  %122 = zext i32 %121 to i64
  %123 = getelementptr inbounds %struct._Bucket, ptr %120, i64 %122
  %124 = getelementptr inbounds %struct._Bucket, ptr %123, i32 0, i32 0
  store ptr %124, ptr %6, align 8
  %125 = load ptr, ptr %6, align 8
  %126 = getelementptr inbounds %struct._zval_struct, ptr %125, i32 0, i32 1
  %127 = load i8, ptr %126, align 8
  %128 = zext i8 %127 to i32
  %129 = icmp ne i32 %128, 0
  br i1 %129, label %130, label %131

130:                                              ; preds = %117
  br label %134

131:                                              ; preds = %117
  %132 = load i32, ptr %12, align 4
  %133 = add i32 %132, 1
  store i32 %133, ptr %12, align 4
  br label %110

134:                                              ; preds = %130
  %135 = load ptr, ptr %9, align 8
  %136 = getelementptr inbounds %struct._zend_array, ptr %135, i32 0, i32 3
  %137 = load ptr, ptr %136, align 8
  %138 = load i32, ptr %12, align 4
  %139 = zext i32 %138 to i64
  %140 = getelementptr inbounds %struct._Bucket, ptr %137, i64 %139
  %141 = getelementptr inbounds %struct._Bucket, ptr %140, i32 0, i32 0
  store ptr %141, ptr %13, align 8
  br label %142

142:                                              ; preds = %194, %134
  %143 = load i32, ptr %12, align 4
  %144 = load ptr, ptr %9, align 8
  %145 = getelementptr inbounds %struct._zend_array, ptr %144, i32 0, i32 4
  %146 = load i32, ptr %145, align 8
  %147 = icmp ult i32 %143, %146
  br i1 %147, label %148, label %197

148:                                              ; preds = %142
  %149 = load ptr, ptr %9, align 8
  %150 = getelementptr inbounds %struct._zend_array, ptr %149, i32 0, i32 3
  %151 = load ptr, ptr %150, align 8
  %152 = load i32, ptr %12, align 4
  %153 = zext i32 %152 to i64
  %154 = getelementptr inbounds %struct._Bucket, ptr %151, i64 %153
  store ptr %154, ptr %15, align 8
  %155 = load ptr, ptr %15, align 8
  %156 = getelementptr inbounds %struct._Bucket, ptr %155, i32 0, i32 0
  store ptr %156, ptr %7, align 8
  %157 = load ptr, ptr %7, align 8
  %158 = getelementptr inbounds %struct._zval_struct, ptr %157, i32 0, i32 1
  %159 = load i8, ptr %158, align 8
  %160 = zext i8 %159 to i32
  %161 = icmp eq i32 %160, 0
  %162 = xor i1 %161, true
  %163 = xor i1 %162, true
  %164 = zext i1 %163 to i32
  %165 = sext i32 %164 to i64
  %166 = icmp ne i64 %165, 0
  br i1 %166, label %167, label %168

167:                                              ; preds = %148
  br label %194

168:                                              ; preds = %148
  %169 = load i32, ptr %11, align 4
  %170 = icmp ne i32 %169, 0
  br i1 %170, label %171, label %182

171:                                              ; preds = %168
  %172 = load ptr, ptr %10, align 8
  %173 = load ptr, ptr %13, align 8
  %174 = load ptr, ptr %15, align 8
  %175 = getelementptr inbounds %struct._Bucket, ptr %174, i32 0, i32 0
  %176 = call i32 %172(ptr noundef %173, ptr noundef %175)
  %177 = icmp slt i32 %176, 0
  br i1 %177, label %178, label %181

178:                                              ; preds = %171
  %179 = load ptr, ptr %15, align 8
  %180 = getelementptr inbounds %struct._Bucket, ptr %179, i32 0, i32 0
  store ptr %180, ptr %13, align 8
  br label %181

181:                                              ; preds = %178, %171
  br label %193

182:                                              ; preds = %168
  %183 = load ptr, ptr %10, align 8
  %184 = load ptr, ptr %13, align 8
  %185 = load ptr, ptr %15, align 8
  %186 = getelementptr inbounds %struct._Bucket, ptr %185, i32 0, i32 0
  %187 = call i32 %183(ptr noundef %184, ptr noundef %186)
  %188 = icmp sgt i32 %187, 0
  br i1 %188, label %189, label %192

189:                                              ; preds = %182
  %190 = load ptr, ptr %15, align 8
  %191 = getelementptr inbounds %struct._Bucket, ptr %190, i32 0, i32 0
  store ptr %191, ptr %13, align 8
  br label %192

192:                                              ; preds = %189, %182
  br label %193

193:                                              ; preds = %192, %181
  br label %194

194:                                              ; preds = %193, %167
  %195 = load i32, ptr %12, align 4
  %196 = add i32 %195, 1
  store i32 %196, ptr %12, align 4
  br label %142

197:                                              ; preds = %142
  br label %198

198:                                              ; preds = %197, %108
  %199 = load ptr, ptr %13, align 8
  store ptr %199, ptr %8, align 8
  br label %200

200:                                              ; preds = %198, %116, %34, %20
  %201 = load ptr, ptr %8, align 8
  ret ptr %201
}