; Function Attrs: nounwind uwtable
define ptr @zend_hash_minmax(ptr nocapture noundef readonly %0, ptr nocapture noundef readonly %1, i32 noundef %2) local_unnamed_addr #0 {
  %4 = getelementptr inbounds i8, ptr %0, i64 28
  %5 = load i32, ptr %4, align 4
  %6 = icmp eq i32 %5, 0
  br i1 %6, label %.loopexit, label %7

7:                                                ; preds = %3
  %8 = getelementptr inbounds i8, ptr %0, i64 8
  %9 = load i32, ptr %8, align 8
  %10 = and i32 %9, 4
  %.not = icmp eq i32 %10, 0
  %11 = getelementptr inbounds i8, ptr %0, i64 24
  %12 = load i32, ptr %11, align 8
  %13 = icmp eq i32 %12, 0
  br i1 %.not, label %.preheader63, label %.preheader67

.preheader67:                                     ; preds = %7
  br i1 %13, label %.loopexit, label %.lr.ph

.lr.ph:                                           ; preds = %.preheader67
  %14 = getelementptr inbounds i8, ptr %0, i64 16
  %15 = load ptr, ptr %14, align 8
  br label %18

.preheader63:                                     ; preds = %7
  br i1 %13, label %.loopexit, label %.lr.ph82

.lr.ph82:                                         ; preds = %.preheader63
  %16 = getelementptr inbounds i8, ptr %0, i64 16
  %17 = load ptr, ptr %16, align 8
  br label %53

18:                                               ; preds = %.lr.ph, %37
  %.05177 = phi i32 [ 0, %.lr.ph ], [ %38, %37 ]
  %19 = zext i32 %.05177 to i64
  %20 = getelementptr inbounds %struct._zval_struct, ptr %15, i64 %19
  %21 = getelementptr inbounds i8, ptr %20, i64 8
  %22 = load i8, ptr %21, align 8
  %.not58 = icmp eq i8 %22, 0
  br i1 %.not58, label %37, label %.preheader65

.preheader65:                                     ; preds = %18
  %23 = icmp ult i32 %.05177, %12
  br i1 %23, label %.lr.ph80, label %.loopexit

.lr.ph80:                                         ; preds = %.preheader65
  %.not59 = icmp eq i32 %2, 0
  br i1 %.not59, label %.lr.ph80.split.us, label %.lr.ph80.split

.lr.ph80.split.us:                                ; preds = %.lr.ph80, %33
  %24 = phi i32 [ %34, %33 ], [ %12, %.lr.ph80 ]
  %indvars.iv103 = phi i64 [ %indvars.iv.next104, %33 ], [ %19, %.lr.ph80 ]
  %.05278.us = phi ptr [ %.153.us, %33 ], [ %20, %.lr.ph80 ]
  %25 = load ptr, ptr %14, align 8
  %26 = getelementptr inbounds %struct._zval_struct, ptr %25, i64 %indvars.iv103
  %27 = getelementptr inbounds i8, ptr %26, i64 8
  %28 = load i8, ptr %27, align 8
  %29 = icmp eq i8 %28, 0
  br i1 %29, label %33, label %30

30:                                               ; preds = %.lr.ph80.split.us
  %31 = tail call i32 %1(ptr noundef %.05278.us, ptr noundef nonnull %26) #27
  %32 = icmp sgt i32 %31, 0
  %spec.select60.us = select i1 %32, ptr %26, ptr %.05278.us
  %.pre116 = load i32, ptr %11, align 8
  br label %33

33:                                               ; preds = %30, %.lr.ph80.split.us
  %34 = phi i32 [ %24, %.lr.ph80.split.us ], [ %.pre116, %30 ]
  %.153.us = phi ptr [ %.05278.us, %.lr.ph80.split.us ], [ %spec.select60.us, %30 ]
  %indvars.iv.next104 = add nuw nsw i64 %indvars.iv103, 1
  %35 = zext i32 %34 to i64
  %36 = icmp ult i64 %indvars.iv.next104, %35
  br i1 %36, label %.lr.ph80.split.us, label %.loopexit

37:                                               ; preds = %18
  %38 = add nuw i32 %.05177, 1
  %39 = icmp eq i32 %38, %12
  br i1 %39, label %.loopexit, label %18

.lr.ph80.split:                                   ; preds = %.lr.ph80, %49
  %40 = phi i32 [ %50, %49 ], [ %12, %.lr.ph80 ]
  %indvars.iv = phi i64 [ %indvars.iv.next, %49 ], [ %19, %.lr.ph80 ]
  %.05278 = phi ptr [ %.153, %49 ], [ %20, %.lr.ph80 ]
  %41 = load ptr, ptr %14, align 8
  %42 = getelementptr inbounds %struct._zval_struct, ptr %41, i64 %indvars.iv
  %43 = getelementptr inbounds i8, ptr %42, i64 8
  %44 = load i8, ptr %43, align 8
  %45 = icmp eq i8 %44, 0
  br i1 %45, label %49, label %46

46:                                               ; preds = %.lr.ph80.split
  %47 = tail call i32 %1(ptr noundef %.05278, ptr noundef nonnull %42) #27
  %48 = icmp slt i32 %47, 0
  %spec.select = select i1 %48, ptr %42, ptr %.05278
  %.pre = load i32, ptr %11, align 8
  br label %49

49:                                               ; preds = %46, %.lr.ph80.split
  %50 = phi i32 [ %40, %.lr.ph80.split ], [ %.pre, %46 ]
  %.153 = phi ptr [ %.05278, %.lr.ph80.split ], [ %spec.select, %46 ]
  %indvars.iv.next = add nuw nsw i64 %indvars.iv, 1
  %51 = zext i32 %50 to i64
  %52 = icmp ult i64 %indvars.iv.next, %51
  br i1 %52, label %.lr.ph80.split, label %.loopexit

53:                                               ; preds = %.lr.ph82, %72
  %.281 = phi i32 [ 0, %.lr.ph82 ], [ %73, %72 ]
  %54 = zext i32 %.281 to i64
  %55 = getelementptr inbounds %struct._Bucket, ptr %17, i64 %54
  %56 = getelementptr inbounds i8, ptr %55, i64 8
  %57 = load i8, ptr %56, align 8
  %.not56 = icmp eq i8 %57, 0
  br i1 %.not56, label %72, label %.preheader

.preheader:                                       ; preds = %53
  %58 = icmp ult i32 %.281, %12
  br i1 %58, label %.lr.ph85, label %.loopexit

.lr.ph85:                                         ; preds = %.preheader
  %.not57 = icmp eq i32 %2, 0
  br i1 %.not57, label %.lr.ph85.split.us, label %.lr.ph85.split

.lr.ph85.split.us:                                ; preds = %.lr.ph85, %68
  %59 = phi i32 [ %69, %68 ], [ %12, %.lr.ph85 ]
  %indvars.iv113 = phi i64 [ %indvars.iv.next114, %68 ], [ %54, %.lr.ph85 ]
  %.25483.us = phi ptr [ %.355.us, %68 ], [ %55, %.lr.ph85 ]
  %60 = load ptr, ptr %16, align 8
  %61 = getelementptr inbounds %struct._Bucket, ptr %60, i64 %indvars.iv113
  %62 = getelementptr inbounds i8, ptr %61, i64 8
  %63 = load i8, ptr %62, align 8
  %64 = icmp eq i8 %63, 0
  br i1 %64, label %68, label %65

65:                                               ; preds = %.lr.ph85.split.us
  %66 = tail call i32 %1(ptr noundef %.25483.us, ptr noundef nonnull %61) #27
  %67 = icmp sgt i32 %66, 0
  %spec.select62.us = select i1 %67, ptr %61, ptr %.25483.us
  %.pre118 = load i32, ptr %11, align 8
  br label %68

68:                                               ; preds = %65, %.lr.ph85.split.us
  %69 = phi i32 [ %59, %.lr.ph85.split.us ], [ %.pre118, %65 ]
  %.355.us = phi ptr [ %.25483.us, %.lr.ph85.split.us ], [ %spec.select62.us, %65 ]
  %indvars.iv.next114 = add nuw nsw i64 %indvars.iv113, 1
  %70 = zext i32 %69 to i64
  %71 = icmp ult i64 %indvars.iv.next114, %70
  br i1 %71, label %.lr.ph85.split.us, label %.loopexit

72:                                               ; preds = %53
  %73 = add nuw i32 %.281, 1
  %74 = icmp eq i32 %73, %12
  br i1 %74, label %.loopexit, label %53

.lr.ph85.split:                                   ; preds = %.lr.ph85, %84
  %75 = phi i32 [ %85, %84 ], [ %12, %.lr.ph85 ]
  %indvars.iv108 = phi i64 [ %indvars.iv.next109, %84 ], [ %54, %.lr.ph85 ]
  %.25483 = phi ptr [ %.355, %84 ], [ %55, %.lr.ph85 ]
  %76 = load ptr, ptr %16, align 8
  %77 = getelementptr inbounds %struct._Bucket, ptr %76, i64 %indvars.iv108
  %78 = getelementptr inbounds i8, ptr %77, i64 8
  %79 = load i8, ptr %78, align 8
  %80 = icmp eq i8 %79, 0
  br i1 %80, label %84, label %81

81:                                               ; preds = %.lr.ph85.split
  %82 = tail call i32 %1(ptr noundef %.25483, ptr noundef nonnull %77) #27
  %83 = icmp slt i32 %82, 0
  %spec.select61 = select i1 %83, ptr %77, ptr %.25483
  %.pre117 = load i32, ptr %11, align 8
  br label %84

84:                                               ; preds = %81, %.lr.ph85.split
  %85 = phi i32 [ %75, %.lr.ph85.split ], [ %.pre117, %81 ]
  %.355 = phi ptr [ %.25483, %.lr.ph85.split ], [ %spec.select61, %81 ]
  %indvars.iv.next109 = add nuw nsw i64 %indvars.iv108, 1
  %86 = zext i32 %85 to i64
  %87 = icmp ult i64 %indvars.iv.next109, %86
  br i1 %87, label %.lr.ph85.split, label %.loopexit

.loopexit:                                        ; preds = %37, %49, %33, %72, %84, %68, %.preheader67, %.preheader65, %.preheader63, %.preheader, %3
  %.0 = phi ptr [ null, %3 ], [ %55, %.preheader ], [ null, %.preheader63 ], [ %20, %.preheader65 ], [ null, %.preheader67 ], [ %.355.us, %68 ], [ %.355, %84 ], [ null, %72 ], [ %.153.us, %33 ], [ %.153, %49 ], [ null, %37 ]
  ret ptr %.0
}